; Function Attrs: mustprogress uwtable
define hidden void @_ZN3euf9relevancy12set_assertedEN3sat7literalE(ptr noundef nonnull align 8 dereferenceable(672) %0, i32 %1) local_unnamed_addr #3 align 2 {
  tail call void @_ZN3euf9relevancy12set_relevantEN3sat7literalE(ptr noundef nonnull align 8 dereferenceable(672) %0, i32 %1)
  %3 = getelementptr inbounds nuw i8, ptr %0, i64 16
  %4 = lshr i32 %1, 1
  %.sroa.2.0.insert.ext.i.i = zext nneg i32 %4 to i64
  %.sroa.2.0.insert.shift.i.i = shl nuw nsw i64 %.sroa.2.0.insert.ext.i.i, 32
  %.sroa.0.0.insert.insert.i.i = or disjoint i64 %.sroa.2.0.insert.shift.i.i, 1
  %5 = load ptr, ptr %3, align 8, !tbaa !45
  %6 = icmp eq ptr %5, null
  br i1 %6, label %13, label %7

7:                                                ; preds = %2
  %8 = getelementptr inbounds i8, ptr %5, i64 -4
  %9 = load i32, ptr %8, align 4, !tbaa !44
  %10 = getelementptr inbounds i8, ptr %5, i64 -8
  %11 = load i32, ptr %10, align 4, !tbaa !44
  %12 = icmp eq i32 %9, %11
  br i1 %12, label %13, label %_ZN6vectorISt4pairIN3euf9relevancy6updateEjELb0EjE9push_backEOS4_.exit.i

13:                                               ; preds = %7, %2
  tail call void @_ZN6vectorISt4pairIN3euf9relevancy6updateEjELb0EjE13expand_vectorEv(ptr noundef nonnull align 8 dereferenceable(8) %3)
  %.pre.i.i = load ptr, ptr %3, align 8, !tbaa !45
  %.phi.trans.insert.i.i = getelementptr inbounds i8, ptr %.pre.i.i, i64 -4
  %.pre2.i.i = load i32, ptr %.phi.trans.insert.i.i, align 4, !tbaa !44
  br label %_ZN6vectorISt4pairIN3euf9relevancy6updateEjELb0EjE9push_backEOS4_.exit.i

_ZN6vectorISt4pairIN3euf9relevancy6updateEjELb0EjE9push_backEOS4_.exit.i: ; preds = %13, %7
  %14 = phi i32 [ %.pre2.i.i, %13 ], [ %9, %7 ]
  %15 = phi ptr [ %.pre.i.i, %13 ], [ %5, %7 ]
  %16 = zext i32 %14 to i64
  %17 = getelementptr inbounds nuw %"struct.std::pair", ptr %15, i64 %16
  store i64 %.sroa.0.0.insert.insert.i.i, ptr %17, align 4
  %18 = load ptr, ptr %3, align 8, !tbaa !45
  %19 = getelementptr inbounds i8, ptr %18, i64 -4
  %20 = load i32, ptr %19, align 4, !tbaa !44
  %21 = add i32 %20, 1
  store i32 %21, ptr %19, align 4, !tbaa !44
  %22 = getelementptr inbounds nuw i8, ptr %0, i64 648
  %23 = load ptr, ptr %22, align 8, !tbaa !50
  %24 = icmp eq ptr %23, null
  br i1 %24, label %31, label %25

25:                                               ; preds = %_ZN6vectorISt4pairIN3euf9relevancy6updateEjELb0EjE9push_backEOS4_.exit.i
  %26 = getelementptr inbounds i8, ptr %23, i64 -4
  %27 = load i32, ptr %26, align 4, !tbaa !44
  %28 = getelementptr inbounds i8, ptr %23, i64 -8
  %29 = load i32, ptr %28, align 4, !tbaa !44
  %30 = icmp eq i32 %27, %29
  br i1 %30, label %31, label %_ZN3euf9relevancy24add_to_propagation_queueEN3sat7literalE.exit

31:                                               ; preds = %25, %_ZN6vectorISt4pairIN3euf9relevancy6updateEjELb0EjE9push_backEOS4_.exit.i
  tail call void @_ZN6vectorISt4pairIN3sat7literalEPN3euf5enodeEELb0EjE13expand_vectorEv(ptr noundef nonnull align 8 dereferenceable(8) %22)
  %.pre.i1.i = load ptr, ptr %22, align 8, !tbaa !50
  %.phi.trans.insert.i2.i = getelementptr inbounds i8, ptr %.pre.i1.i, i64 -4
  %.pre2.i3.i = load i32, ptr %.phi.trans.insert.i2.i, align 4, !tbaa !44
  br label %_ZN3euf9relevancy24add_to_propagation_queueEN3sat7literalE.exit

_ZN3euf9relevancy24add_to_propagation_queueEN3sat7literalE.exit: ; preds = %25, %31
  %32 = phi i32 [ %.pre2.i3.i, %31 ], [ %27, %25 ]
  %33 = phi ptr [ %.pre.i1.i, %31 ], [ %23, %25 ]
  %34 = zext i32 %32 to i64
  %35 = getelementptr inbounds nuw %"struct.std::pair.156", ptr %33, i64 %34
  store i32 %1, ptr %35, align 8
  %.sroa.47.0..sroa_idx.i = getelementptr inbounds nuw i8, ptr %35, i64 8
  store ptr null, ptr %.sroa.47.0..sroa_idx.i, align 8
  %36 = load ptr, ptr %22, align 8, !tbaa !50
  %37 = getelementptr inbounds i8, ptr %36, i64 -4
  %38 = load i32, ptr %37, align 4, !tbaa !44
  %39 = add i32 %38, 1
  store i32 %39, ptr %37, align 4, !tbaa !44
  %40 = load ptr, ptr %0, align 8, !tbaa !62
  %41 = load ptr, ptr %40, align 8, !tbaa !72
  %42 = getelementptr inbounds nuw i8, ptr %41, i64 112
  %43 = load ptr, ptr %42, align 8
  tail call void %43(ptr noundef nonnull align 8 dereferenceable(8456) %40, i32 %1)
  ret void
}